target datalayout = "e-m:e-p270:32:32-p271:32:32-p272:64:64-i64:64-i128:128-f80:128-n8:16:32:64-S128"
target triple = "x86_64-pc-linux-gnu"

%struct.expert_field = type { i32, i32 }

@hf_router_identity_ip_index = internal global i32 0, align 4
@hf_router_identity_ipv4 = internal global i32 0, align 4
@hf_router_identity_ipv6 = internal global i32 0, align 4
@hf_router_identity_receive_id = internal global i32 0, align 4
@hf_wc_view_info_change_num = internal global i32 0, align 4
@hf_wc_view_info_router_ip_index = internal global i32 0, align 4
@hf_wc_view_info_router_ipv4 = internal global i32 0, align 4
@hf_wc_view_info_router_ipv6 = internal global i32 0, align 4
@hf_wc_view_info_wc_ip_index = internal global i32 0, align 4
@hf_wc_view_info_wc_ipv4 = internal global i32 0, align 4
@hf_wc_view_info_wc_ipv6 = internal global i32 0, align 4
@hf_wc_view_router_num = internal global i32 0, align 4
@hf_wc_view_wc_num = internal global i32 0, align 4
@ett_wc_view_info_router_element = internal global i32 0, align 4
@ei_wccp_router_identity_receive_id_zero = internal global %struct.expert_field zeroinitializer, align 4

; Function Attrs: null_pointer_is_valid sspstrong uwtable
define internal void @dissect_wccp2_router_identity_element(ptr noundef %0, i32 noundef %1, ptr noundef %2, ptr noundef %3, ptr noundef %4) #0 {
  %6 = alloca ptr, align 8
  %7 = alloca i32, align 4
  %8 = alloca ptr, align 8
  %9 = alloca ptr, align 8
  %10 = alloca ptr, align 8
  %11 = alloca ptr, align 8
  store ptr %0, ptr %6, align 8
  store i32 %1, ptr %7, align 4
  store ptr %2, ptr %8, align 8
  store ptr %3, ptr %9, align 8
  store ptr %4, ptr %10, align 8
  call void @llvm.lifetime.start.p0(i64 8, ptr %11) #9
  %12 = load ptr, ptr %9, align 8
  %13 = load i32, ptr @hf_router_identity_ip_index, align 4
  %14 = load i32, ptr @hf_router_identity_ipv4, align 4
  %15 = load i32, ptr @hf_router_identity_ipv6, align 4
  %16 = load ptr, ptr %6, align 8
  %17 = load i32, ptr %7, align 4
  %18 = load ptr, ptr %10, align 8
  %19 = call ptr @wccp_add_ipaddress_item(ptr noundef %12, i32 noundef %13, i32 noundef %14, i32 noundef %15, ptr noundef %16, i32 noundef %17, i32 noundef 4, ptr noundef %18)
  %20 = load ptr, ptr %9, align 8
  %21 = load i32, ptr @hf_router_identity_receive_id, align 4
  %22 = load ptr, ptr %6, align 8
  %23 = load i32, ptr %7, align 4
  %24 = add i32 %23, 4
  %25 = call ptr @proto_tree_add_item(ptr noundef %20, i32 noundef %21, ptr noundef %22, i32 noundef %24, i32 noundef 4, i32 noundef 0)
  store ptr %25, ptr %11, align 8
  %26 = load ptr, ptr %6, align 8
  %27 = load i32, ptr %7, align 4
  %28 = add i32 %27, 4
  %29 = call i32 @tvb_get_ntohl(ptr noundef %26, i32 noundef %28)
  %30 = icmp eq i32 %29, 0
  br i1 %30, label %31, label %35

31:                                               ; preds = %5
  %32 = load ptr, ptr %8, align 8
  %33 = load ptr, ptr %11, align 8
  %34 = call ptr @expert_add_info(ptr noundef %32, ptr noundef %33, ptr noundef @ei_wccp_router_identity_receive_id_zero)
  br label %35

35:                                               ; preds = %31, %5
  call void @llvm.lifetime.end.p0(i64 8, ptr %11) #9
  ret void
}

; Function Attrs: null_pointer_is_valid sspstrong uwtable
define internal i32 @dissect_wccp2_web_cache_view_info(ptr noundef %0, i32 noundef %1, i32 noundef %2, ptr noundef %3, ptr noundef %4, ptr noundef %5) #0 {
  %7 = alloca i32, align 4
  %8 = alloca ptr, align 8
  %9 = alloca i32, align 4
  %10 = alloca i32, align 4
  %11 = alloca ptr, align 8
  %12 = alloca ptr, align 8
  %13 = alloca ptr, align 8
  %14 = alloca i32, align 4
  %15 = alloca i32, align 4
  %16 = alloca i32, align 4
  %17 = alloca ptr, align 8
  %18 = alloca ptr, align 8
  %19 = alloca i32, align 4
  store ptr %0, ptr %8, align 8
  store i32 %1, ptr %9, align 4
  store i32 %2, ptr %10, align 4
  store ptr %3, ptr %11, align 8
  store ptr %4, ptr %12, align 8
  store ptr %5, ptr %13, align 8
  call void @llvm.lifetime.start.p0(i64 4, ptr %14) #9
  call void @llvm.lifetime.start.p0(i64 4, ptr %15) #9
  call void @llvm.lifetime.start.p0(i64 4, ptr %16) #9
  call void @llvm.lifetime.start.p0(i64 8, ptr %17) #9
  call void @llvm.lifetime.start.p0(i64 8, ptr %18) #9
  %20 = load i32, ptr %10, align 4
  %21 = icmp slt i32 %20, 12
  br i1 %21, label %22, label %25

22:                                               ; preds = %6
  %23 = load i32, ptr %10, align 4
  %24 = sub i32 %23, 12
  store i32 %24, ptr %7, align 4
  store i32 1, ptr %19, align 4
  br label %146

25:                                               ; preds = %6
  %26 = load ptr, ptr %12, align 8
  %27 = load i32, ptr @hf_wc_view_info_change_num, align 4
  %28 = load ptr, ptr %8, align 8
  %29 = load i32, ptr %9, align 4
  %30 = call ptr @proto_tree_add_item(ptr noundef %26, i32 noundef %27, ptr noundef %28, i32 noundef %29, i32 noundef 4, i32 noundef 0)
  %31 = load i32, ptr %10, align 4
  %32 = sub i32 %31, 4
  store i32 %32, ptr %10, align 4
  %33 = load i32, ptr %9, align 4
  %34 = add i32 %33, 4
  store i32 %34, ptr %9, align 4
  %35 = load i32, ptr %10, align 4
  %36 = icmp slt i32 %35, 4
  br i1 %36, label %37, label %40

37:                                               ; preds = %25
  %38 = load i32, ptr %10, align 4
  %39 = sub i32 %38, 4
  store i32 %39, ptr %7, align 4
  store i32 1, ptr %19, align 4
  br label %146

40:                                               ; preds = %25
  %41 = load ptr, ptr %8, align 8
  %42 = load i32, ptr %9, align 4
  %43 = call i32 @tvb_get_ntohl(ptr noundef %41, i32 noundef %42)
  store i32 %43, ptr %14, align 4
  %44 = load ptr, ptr %12, align 8
  %45 = load i32, ptr @hf_wc_view_router_num, align 4
  %46 = load ptr, ptr %8, align 8
  %47 = load i32, ptr %9, align 4
  %48 = load i32, ptr %14, align 4
  %49 = call ptr @proto_tree_add_uint(ptr noundef %44, i32 noundef %45, ptr noundef %46, i32 noundef %47, i32 noundef 4, i32 noundef %48)
  %50 = load i32, ptr %10, align 4
  %51 = sub i32 %50, 4
  store i32 %51, ptr %10, align 4
  %52 = load i32, ptr %9, align 4
  %53 = add i32 %52, 4
  store i32 %53, ptr %9, align 4
  store i32 0, ptr %16, align 4
  br label %54

54:                                               ; preds = %91, %40
  %55 = load i32, ptr %16, align 4
  %56 = load i32, ptr %14, align 4
  %57 = icmp ult i32 %55, %56
  br i1 %57, label %58, label %94

58:                                               ; preds = %54
  %59 = load i32, ptr %10, align 4
  %60 = icmp slt i32 %59, 8
  br i1 %60, label %61, label %69

61:                                               ; preds = %58
  %62 = load i32, ptr %10, align 4
  %63 = load i32, ptr %14, align 4
  %64 = load i32, ptr %16, align 4
  %65 = sub i32 %63, %64
  %66 = mul i32 8, %65
  %67 = sub i32 %62, %66
  %68 = sub i32 %67, 4
  store i32 %68, ptr %7, align 4
  store i32 1, ptr %19, align 4
  br label %146

69:                                               ; preds = %58
  %70 = load ptr, ptr %12, align 8
  %71 = load i32, ptr @hf_wc_view_info_router_ip_index, align 4
  %72 = load i32, ptr @hf_wc_view_info_router_ipv4, align 4
  %73 = load i32, ptr @hf_wc_view_info_router_ipv6, align 4
  %74 = load ptr, ptr %8, align 8
  %75 = load i32, ptr %9, align 4
  %76 = load ptr, ptr %13, align 8
  %77 = call ptr @wccp_add_ipaddress_item(ptr noundef %70, i32 noundef %71, i32 noundef %72, i32 noundef %73, ptr noundef %74, i32 noundef %75, i32 noundef 4, ptr noundef %76)
  store ptr %77, ptr %17, align 8
  %78 = load ptr, ptr %17, align 8
  call void @proto_item_set_len(ptr noundef %78, i32 noundef 8)
  %79 = load ptr, ptr %17, align 8
  %80 = load i32, ptr @ett_wc_view_info_router_element, align 4
  %81 = call ptr @proto_item_add_subtree(ptr noundef %79, i32 noundef %80)
  store ptr %81, ptr %18, align 8
  %82 = load ptr, ptr %8, align 8
  %83 = load i32, ptr %9, align 4
  %84 = load ptr, ptr %11, align 8
  %85 = load ptr, ptr %18, align 8
  %86 = load ptr, ptr %13, align 8
  call void @dissect_wccp2_router_identity_element(ptr noundef %82, i32 noundef %83, ptr noundef %84, ptr noundef %85, ptr noundef %86)
  %87 = load i32, ptr %10, align 4
  %88 = sub i32 %87, 8
  store i32 %88, ptr %10, align 4
  %89 = load i32, ptr %9, align 4
  %90 = add i32 %89, 8
  store i32 %90, ptr %9, align 4
  br label %91

91:                                               ; preds = %69
  %92 = load i32, ptr %16, align 4
  %93 = add i32 %92, 1
  store i32 %93, ptr %16, align 4
  br label %54, !llvm.loop !19

94:                                               ; preds = %54
  %95 = load i32, ptr %10, align 4
  %96 = icmp slt i32 %95, 4
  br i1 %96, label %97, label %100

97:                                               ; preds = %94
  %98 = load i32, ptr %10, align 4
  %99 = sub i32 %98, 4
  store i32 %99, ptr %7, align 4
  store i32 1, ptr %19, align 4
  br label %146

100:                                              ; preds = %94
  %101 = load ptr, ptr %8, align 8
  %102 = load i32, ptr %9, align 4
  %103 = call i32 @tvb_get_ntohl(ptr noundef %101, i32 noundef %102)
  store i32 %103, ptr %15, align 4
  %104 = load ptr, ptr %12, align 8
  %105 = load i32, ptr @hf_wc_view_wc_num, align 4
  %106 = load ptr, ptr %8, align 8
  %107 = load i32, ptr %9, align 4
  %108 = load i32, ptr %15, align 4
  %109 = call ptr @proto_tree_add_uint(ptr noundef %104, i32 noundef %105, ptr noundef %106, i32 noundef %107, i32 noundef 4, i32 noundef %108)
  %110 = load i32, ptr %10, align 4
  %111 = sub i32 %110, 4
  store i32 %111, ptr %10, align 4
  %112 = load i32, ptr %9, align 4
  %113 = add i32 %112, 4
  store i32 %113, ptr %9, align 4
  store i32 0, ptr %16, align 4
  br label %114

114:                                              ; preds = %141, %100
  %115 = load i32, ptr %16, align 4
  %116 = load i32, ptr %15, align 4
  %117 = icmp ult i32 %115, %116
  br i1 %117, label %118, label %144

118:                                              ; preds = %114
  %119 = load i32, ptr %10, align 4
  %120 = icmp slt i32 %119, 4
  br i1 %120, label %121, label %128

121:                                              ; preds = %118
  %122 = load i32, ptr %10, align 4
  %123 = load i32, ptr %15, align 4
  %124 = load i32, ptr %16, align 4
  %125 = sub i32 %123, %124
  %126 = mul i32 4, %125
  %127 = sub i32 %122, %126
  store i32 %127, ptr %7, align 4
  store i32 1, ptr %19, align 4
  br label %146

128:                                              ; preds = %118
  %129 = load ptr, ptr %12, align 8
  %130 = load i32, ptr @hf_wc_view_info_wc_ip_index, align 4
  %131 = load i32, ptr @hf_wc_view_info_wc_ipv4, align 4
  %132 = load i32, ptr @hf_wc_view_info_wc_ipv6, align 4
  %133 = load ptr, ptr %8, align 8
  %134 = load i32, ptr %9, align 4
  %135 = load ptr, ptr %13, align 8
  %136 = call ptr @wccp_add_ipaddress_item(ptr noundef %129, i32 noundef %130, i32 noundef %131, i32 noundef %132, ptr noundef %133, i32 noundef %134, i32 noundef 4, ptr noundef %135)
  %137 = load i32, ptr %10, align 4
  %138 = sub i32 %137, 4
  store i32 %138, ptr %10, align 4
  %139 = load i32, ptr %9, align 4
  %140 = add i32 %139, 4
  store i32 %140, ptr %9, align 4
  br label %141

141:                                              ; preds = %128
  %142 = load i32, ptr %16, align 4
  %143 = add i32 %142, 1
  store i32 %143, ptr %16, align 4
  br label %114, !llvm.loop !20

144:                                              ; preds = %114
  %145 = load i32, ptr %10, align 4
  store i32 %145, ptr %7, align 4
  store i32 1, ptr %19, align 4
  br label %146

146:                                              ; preds = %144, %121, %97, %61, %37, %22
  call void @llvm.lifetime.end.p0(i64 8, ptr %18) #9
  call void @llvm.lifetime.end.p0(i64 8, ptr %17) #9
  call void @llvm.lifetime.end.p0(i64 4, ptr %16) #9
  call void @llvm.lifetime.end.p0(i64 4, ptr %15) #9
  call void @llvm.lifetime.end.p0(i64 4, ptr %14) #9
  %147 = load i32, ptr %7, align 4
  ret i32 %147
}