; Function Attrs: null_pointer_is_valid sspstrong uwtable
define internal i32 @dissect_wccp2_web_cache_view_info(ptr noundef %0, i32 noundef %1, i32 noundef %2, ptr noundef %3, ptr noundef %4, ptr noundef readonly captures(none) %5) unnamed_addr #0 {
  %7 = icmp slt i32 %2, 12
  br i1 %7, label %8, label %10

8:                                                ; preds = %6
  %9 = add i32 %2, -12
  br label %.loopexit

10:                                               ; preds = %6
  %11 = load i32, ptr @hf_wc_view_info_change_num, align 4
  %12 = tail call ptr @proto_tree_add_item(ptr noundef %4, i32 noundef %11, ptr noundef %0, i32 noundef %1, i32 noundef 4, i32 noundef 0)
  %13 = add i32 %1, 4
  %14 = tail call i32 @tvb_get_ntohl(ptr noundef %0, i32 noundef %13)
  %15 = load i32, ptr @hf_wc_view_router_num, align 4
  %16 = tail call ptr @proto_tree_add_uint(ptr noundef %4, i32 noundef %15, ptr noundef %0, i32 noundef %13, i32 noundef 4, i32 noundef %14)
  %.06482 = add nsw i32 %2, -8
  %.06183 = add i32 %1, 8
  %.not = icmp eq i32 %14, 0
  br i1 %.not, label %._crit_edge.thread, label %.lr.ph.preheader

.lr.ph.preheader:                                 ; preds = %10
  %17 = lshr i32 %.06482, 3
  %18 = add i32 %14, -1
  %umin = tail call i32 @llvm.umin.i32(i32 %17, i32 %18)
  br label %.lr.ph

.lr.ph:                                           ; preds = %.lr.ph.preheader, %dissect_wccp2_router_identity_element.exit
  %.06188 = phi i32 [ %.061, %dissect_wccp2_router_identity_element.exit ], [ %.06183, %.lr.ph.preheader ]
  %.06487 = phi i32 [ %.064, %dissect_wccp2_router_identity_element.exit ], [ %.06482, %.lr.ph.preheader ]
  %.061.in86 = phi i32 [ %.06188, %dissect_wccp2_router_identity_element.exit ], [ %1, %.lr.ph.preheader ]
  %.06285 = phi i32 [ %40, %dissect_wccp2_router_identity_element.exit ], [ 0, %.lr.ph.preheader ]
  %exitcond = icmp eq i32 %.06285, %17
  br i1 %exitcond, label %19, label %22

19:                                               ; preds = %.lr.ph
  %.neg73 = sub i32 %umin, %14
  %.neg74 = shl i32 %.neg73, 3
  %20 = add i32 %.06487, -4
  %21 = add i32 %20, %.neg74
  br label %.loopexit

22:                                               ; preds = %.lr.ph
  %23 = load i32, ptr @hf_wc_view_info_router_ip_index, align 4
  %24 = load i32, ptr @hf_wc_view_info_router_ipv4, align 4
  %25 = load i32, ptr @hf_wc_view_info_router_ipv6, align 4
  %26 = tail call fastcc ptr @wccp_add_ipaddress_item(ptr noundef %4, i32 noundef %23, i32 noundef %24, i32 noundef %25, ptr noundef %0, i32 noundef %.06188, ptr noundef %5)
  tail call void @proto_item_set_len(ptr noundef %26, i32 noundef 8)
  %27 = load i32, ptr @ett_wc_view_info_router_element, align 4
  %28 = tail call ptr @proto_item_add_subtree(ptr noundef %26, i32 noundef %27)
  %29 = load i32, ptr @hf_router_identity_ip_index, align 4
  %30 = load i32, ptr @hf_router_identity_ipv4, align 4
  %31 = load i32, ptr @hf_router_identity_ipv6, align 4
  %32 = tail call fastcc ptr @wccp_add_ipaddress_item(ptr noundef %28, i32 noundef %29, i32 noundef %30, i32 noundef %31, ptr noundef %0, i32 noundef %.06188, ptr noundef readonly %5)
  %33 = load i32, ptr @hf_router_identity_receive_id, align 4
  %34 = add i32 %.061.in86, 12
  %35 = tail call ptr @proto_tree_add_item(ptr noundef %28, i32 noundef %33, ptr noundef %0, i32 noundef %34, i32 noundef 4, i32 noundef 0)
  %36 = tail call i32 @tvb_get_ntohl(ptr noundef %0, i32 noundef %34)
  %37 = icmp eq i32 %36, 0
  br i1 %37, label %38, label %dissect_wccp2_router_identity_element.exit

38:                                               ; preds = %22
  %39 = tail call ptr @expert_add_info(ptr noundef %3, ptr noundef %35, ptr noundef nonnull @ei_wccp_router_identity_receive_id_zero)
  br label %dissect_wccp2_router_identity_element.exit

dissect_wccp2_router_identity_element.exit:       ; preds = %22, %38
  %40 = add nuw nsw i32 %.06285, 1
  %.064 = add nsw i32 %.06487, -8
  %.061 = add i32 %.06188, 8
  %exitcond108.not = icmp eq i32 %40, %14
  br i1 %exitcond108.not, label %._crit_edge, label %.lr.ph, !llvm.loop !17

._crit_edge:                                      ; preds = %dissect_wccp2_router_identity_element.exit
  %41 = icmp samesign ult i32 %.06487, 12
  br i1 %41, label %42, label %._crit_edge.thread

42:                                               ; preds = %._crit_edge
  %43 = add nuw nsw i32 %.06487, -12
  br label %.loopexit

._crit_edge.thread:                               ; preds = %10, %._crit_edge
  %.061.lcssa116 = phi i32 [ %.061, %._crit_edge ], [ %.06183, %10 ]
  %.064.lcssa115 = phi i32 [ %.064, %._crit_edge ], [ %.06482, %10 ]
  %.061.in.lcssa114 = phi i32 [ %.06188, %._crit_edge ], [ %1, %10 ]
  %44 = tail call i32 @tvb_get_ntohl(ptr noundef %0, i32 noundef %.061.lcssa116)
  %45 = load i32, ptr @hf_wc_view_wc_num, align 4
  %46 = tail call ptr @proto_tree_add_uint(ptr noundef %4, i32 noundef %45, ptr noundef %0, i32 noundef %.061.lcssa116, i32 noundef 4, i32 noundef %44)
  %.16592 = add nsw i32 %.064.lcssa115, -4
  %.not100 = icmp eq i32 %44, 0
  br i1 %.not100, label %.loopexit, label %.lr.ph98.preheader

.lr.ph98.preheader:                               ; preds = %._crit_edge.thread
  %47 = add i32 %.061.in.lcssa114, 12
  br label %.lr.ph98

.lr.ph98:                                         ; preds = %.lr.ph98.preheader, %51
  %.16596 = phi i32 [ %.165, %51 ], [ %.16592, %.lr.ph98.preheader ]
  %.195 = phi i32 [ %56, %51 ], [ %47, %.lr.ph98.preheader ]
  %.16394 = phi i32 [ %57, %51 ], [ 0, %.lr.ph98.preheader ]
  %.165.in93 = phi i32 [ %.16596, %51 ], [ %.064.lcssa115, %.lr.ph98.preheader ]
  %48 = icmp samesign ult i32 %.165.in93, 8
  br i1 %48, label %49, label %51

49:                                               ; preds = %.lr.ph98
  %.neg = sub i32 %.16394, %44
  %.neg72 = shl i32 %.neg, 2
  %50 = add i32 %.neg72, %.16596
  br label %.loopexit

51:                                               ; preds = %.lr.ph98
  %52 = load i32, ptr @hf_wc_view_info_wc_ip_index, align 4
  %53 = load i32, ptr @hf_wc_view_info_wc_ipv4, align 4
  %54 = load i32, ptr @hf_wc_view_info_wc_ipv6, align 4
  %55 = tail call fastcc ptr @wccp_add_ipaddress_item(ptr noundef %4, i32 noundef %52, i32 noundef %53, i32 noundef %54, ptr noundef %0, i32 noundef %.195, ptr noundef %5)
  %56 = add i32 %.195, 4
  %57 = add nuw nsw i32 %.16394, 1
  %.165 = add nsw i32 %.16596, -4
  %exitcond109.not = icmp eq i32 %57, %44
  br i1 %exitcond109.not, label %.loopexit, label %.lr.ph98, !llvm.loop !18

.loopexit:                                        ; preds = %51, %._crit_edge.thread, %49, %42, %19, %8
  %.0 = phi i32 [ %9, %8 ], [ %21, %19 ], [ %43, %42 ], [ %50, %49 ], [ %.16592, %._crit_edge.thread ], [ %.165, %51 ]
  ret i32 %.0
}